; Function Attrs: nounwind uwtable
define range(i32 0, 2) i32 @SSL_SESSION_set1_id(ptr noundef writeonly captures(address) %0, ptr noundef readonly captures(address) %1, i32 noundef %2) local_unnamed_addr #3 {
  %4 = icmp ugt i32 %2, 32
  br i1 %4, label %5, label %6

5:                                                ; preds = %3
  tail call void @ERR_new() #11
  tail call void @ERR_set_debug(ptr noundef nonnull @.str, i32 noundef 914, ptr noundef nonnull @__func__.SSL_SESSION_set1_id) #11
  tail call void (i32, i32, ptr, ...) @ERR_set_error(i32 noundef 20, i32 noundef 408, ptr noundef null) #11
  br label %13

6:                                                ; preds = %3
  %7 = zext nneg i32 %2 to i64
  %8 = getelementptr inbounds nuw i8, ptr %0, i64 592
  store i64 %7, ptr %8, align 8, !tbaa !91
  %9 = getelementptr inbounds nuw i8, ptr %0, i64 600
  %10 = icmp ne ptr %1, %9
  %11 = icmp ne i32 %2, 0
  %or.cond = and i1 %10, %11
  br i1 %or.cond, label %12, label %13

12:                                               ; preds = %6
  tail call void @llvm.memcpy.p0.p0.i64(ptr nonnull align 8 %9, ptr align 1 %1, i64 %7, i1 false)
  br label %13

13:                                               ; preds = %6, %12, %5
  %.0 = phi i32 [ 0, %5 ], [ 1, %12 ], [ 1, %6 ]
  ret i32 %.0
}